; Function Attrs: mustprogress nofree norecurse nosync nounwind willreturn memory(readwrite, inaccessiblemem: none) uwtable
define void @lv_display_set_antialiasing(ptr noundef %0, i1 noundef zeroext %1) local_unnamed_addr #8 {
  %3 = icmp eq ptr %0, null
  br i1 %3, label %4, label %.thread

4:                                                ; preds = %2
  %5 = load ptr, ptr getelementptr inbounds nuw (i8, ptr @lv_global, i64 40), align 8, !tbaa !33
  %6 = icmp eq ptr %5, null
  br i1 %6, label %12, label %.thread

.thread:                                          ; preds = %2, %4
  %.05 = phi ptr [ %5, %4 ], [ %0, %2 ]
  %7 = getelementptr inbounds nuw i8, ptr %.05, i64 88
  %8 = zext i1 %1 to i16
  %9 = load i16, ptr %7, align 8
  %10 = and i16 %9, -2
  %11 = or disjoint i16 %10, %8
  store i16 %11, ptr %7, align 8
  br label %12

12:                                               ; preds = %4, %.thread
  ret void
}